target datalayout = "e-m:e-p270:32:32-p271:32:32-p272:64:64-i64:64-i128:128-f80:128-n8:16:32:64-S128"
target triple = "x86_64-pc-linux-gnu"

%class.Node = type <{ ptr, ptr, ptr, i32, i32, i32, i32, i32, i32, i32, [4 x i8] }>
%class.PredicateEntryIterator = type { ptr }

; Function Attrs: mustprogress nounwind uwtable
define linkonce_odr hidden noundef ptr @_ZNK4Node10unique_outEv(ptr noundef nonnull align 8 dereferenceable(52) %0) #1 comdat align 2 {
  %2 = alloca ptr, align 8
  store ptr %0, ptr %2, align 8
  %3 = load ptr, ptr %2, align 8
  %4 = getelementptr inbounds %class.Node, ptr %3, i32 0, i32 2
  %5 = load ptr, ptr %4, align 8
  %6 = getelementptr inbounds ptr, ptr %5, i64 0
  %7 = load ptr, ptr %6, align 8
  ret ptr %7
}

; Function Attrs: mustprogress nounwind uwtable
define linkonce_odr hidden noundef i32 @_ZNK4Node6outcntEv(ptr noundef nonnull align 8 dereferenceable(52) %0) #1 comdat align 2 {
  %2 = alloca ptr, align 8
  store ptr %0, ptr %2, align 8
  %3 = load ptr, ptr %2, align 8
  %4 = getelementptr inbounds %class.Node, ptr %3, i32 0, i32 5
  %5 = load i32, ptr %4, align 8
  ret i32 %5
}

; Function Attrs: mustprogress nounwind uwtable
define linkonce_odr hidden noundef zeroext i1 @_ZNK4Node38is_OpaqueInitializedAssertionPredicateEv(ptr noundef nonnull align 8 dereferenceable(52) %0) #1 comdat align 2 {
  %2 = alloca ptr, align 8
  store ptr %0, ptr %2, align 8
  %3 = load ptr, ptr %2, align 8
  %4 = getelementptr inbounds %class.Node, ptr %3, i32 0, i32 8
  %5 = load i32, ptr %4, align 4
  %6 = and i32 %5, 524287
  %7 = icmp eq i32 %6, 262144
  ret i1 %7
}

; Function Attrs: mustprogress nounwind uwtable
define linkonce_odr hidden noundef zeroext i1 @_ZNK4Node10is_Opaque4Ev(ptr noundef nonnull align 8 dereferenceable(52) %0) #1 comdat align 2 {
  %2 = alloca ptr, align 8
  store ptr %0, ptr %2, align 8
  %3 = load ptr, ptr %2, align 8
  %4 = getelementptr inbounds %class.Node, ptr %3, i32 0, i32 8
  %5 = load i32, ptr %4, align 4
  %6 = and i32 %5, 262143
  %7 = icmp eq i32 %6, 131072
  ret i1 %7
}

; Function Attrs: mustprogress nounwind uwtable
define linkonce_odr hidden noundef i32 @_ZN14Deoptimization19trap_request_reasonEi(i32 noundef %0) #1 comdat align 2 {
  %2 = alloca i32, align 4
  %3 = alloca i32, align 4
  store i32 %0, ptr %3, align 4
  %4 = load i32, ptr %3, align 4
  %5 = icmp slt i32 %4, 0
  br i1 %5, label %6, label %13

6:                                                ; preds = %1
  %7 = load i32, ptr %3, align 4
  %8 = xor i32 %7, -1
  %9 = ashr i32 %8, 3
  %10 = sext i32 %9 to i64
  %11 = and i64 %10, 31
  %12 = trunc i64 %11 to i32
  store i32 %12, ptr %2, align 4
  br label %14

13:                                               ; preds = %1
  store i32 9, ptr %2, align 4
  br label %14

14:                                               ; preds = %13, %6
  %15 = load i32, ptr %2, align 4
  ret i32 %15
}

; Function Attrs: mustprogress nounwind uwtable
define hidden noundef zeroext i1 @_ZN26AssertionPredicateWithHalt8has_haltEPK4Node(ptr noundef %0) #1 align 2 {
  %2 = alloca ptr, align 8
  %3 = alloca ptr, align 8
  store ptr %0, ptr %2, align 8
  %4 = load ptr, ptr %2, align 8
  %5 = call noundef ptr @_ZNK4Node9as_IfProjEv(ptr noundef nonnull align 8 dereferenceable(52) %4)
  %6 = call noundef ptr @_ZNK8ProjNode13other_if_projEv(ptr noundef nonnull align 8 dereferenceable(57) %5)
  store ptr %6, ptr %3, align 8
  %7 = load ptr, ptr %3, align 8
  %8 = call noundef i32 @_ZNK4Node6outcntEv(ptr noundef nonnull align 8 dereferenceable(52) %7)
  %9 = icmp eq i32 %8, 1
  br i1 %9, label %10, label %18

10:                                               ; preds = %1
  %11 = load ptr, ptr %3, align 8
  %12 = call noundef ptr @_ZNK4Node10unique_outEv(ptr noundef nonnull align 8 dereferenceable(52) %11)
  %13 = load ptr, ptr %12, align 8
  %14 = getelementptr inbounds ptr, ptr %13, i64 0
  %15 = load ptr, ptr %14, align 8
  %16 = call noundef i32 %15(ptr noundef nonnull align 8 dereferenceable(52) %12)
  %17 = icmp eq i32 %16, 175
  br label %18

18:                                               ; preds = %10, %1
  %19 = phi i1 [ false, %1 ], [ %17, %10 ]
  ret i1 %19
}

; Function Attrs: mustprogress nounwind uwtable
define hidden noundef zeroext i1 @_ZN26AssertionPredicateWithHalt30has_assertion_predicate_opaqueEPK4Node(ptr noundef %0) #1 align 2 {
  %2 = alloca ptr, align 8
  %3 = alloca ptr, align 8
  %4 = alloca ptr, align 8
  store ptr %0, ptr %2, align 8
  %5 = load ptr, ptr %2, align 8
  %6 = call noundef ptr @_ZNK4Node2inEj(ptr noundef nonnull align 8 dereferenceable(52) %5, i32 noundef 0)
  %7 = call noundef ptr @_ZNK4Node5as_IfEv(ptr noundef nonnull align 8 dereferenceable(52) %6)
  store ptr %7, ptr %3, align 8
  %8 = load ptr, ptr %3, align 8
  %9 = call noundef ptr @_ZNK4Node2inEj(ptr noundef nonnull align 8 dereferenceable(52) %8, i32 noundef 1)
  store ptr %9, ptr %4, align 8
  %10 = load ptr, ptr %4, align 8
  %11 = call noundef zeroext i1 @_ZNK4Node10is_Opaque4Ev(ptr noundef nonnull align 8 dereferenceable(52) %10)
  br i1 %11, label %15, label %12

12:                                               ; preds = %1
  %13 = load ptr, ptr %4, align 8
  %14 = call noundef zeroext i1 @_ZNK4Node38is_OpaqueInitializedAssertionPredicateEv(ptr noundef nonnull align 8 dereferenceable(52) %13)
  br label %15

15:                                               ; preds = %12, %1
  %16 = phi i1 [ true, %1 ], [ %14, %12 ]
  ret i1 %16
}

; Function Attrs: mustprogress nounwind uwtable
define linkonce_odr hidden noundef zeroext i1 @_ZNK4Node5is_IfEv(ptr noundef nonnull align 8 dereferenceable(52) %0) #1 comdat align 2 {
  %2 = alloca ptr, align 8
  store ptr %0, ptr %2, align 8
  %3 = load ptr, ptr %2, align 8
  %4 = getelementptr inbounds %class.Node, ptr %3, i32 0, i32 8
  %5 = load i32, ptr %4, align 4
  %6 = and i32 %5, 31
  %7 = icmp eq i32 %6, 21
  ret i1 %7
}

; Function Attrs: mustprogress nounwind uwtable
define hidden noundef i32 @_ZN23RegularPredicateWithUCT20uncommon_trap_reasonEP10IfProjNode(ptr noundef %0) #1 align 2 {
  %2 = alloca i32, align 4
  %3 = alloca ptr, align 8
  %4 = alloca ptr, align 8
  store ptr %0, ptr %3, align 8
  %5 = load ptr, ptr %3, align 8
  %6 = call noundef ptr @_ZNK8ProjNode27is_uncommon_trap_if_patternEN14Deoptimization11DeoptReasonE(ptr noundef nonnull align 8 dereferenceable(57) %5, i32 noundef 0)
  store ptr %6, ptr %4, align 8
  %7 = load ptr, ptr %4, align 8
  %8 = icmp eq ptr %7, null
  br i1 %8, label %9, label %10

9:                                                ; preds = %1
  store i32 0, ptr %2, align 4
  br label %14

10:                                               ; preds = %1
  %11 = load ptr, ptr %4, align 8
  %12 = call noundef i32 @_ZNK18CallStaticJavaNode21uncommon_trap_requestEv(ptr noundef nonnull align 8 dereferenceable(145) %11)
  %13 = call noundef i32 @_ZN14Deoptimization19trap_request_reasonEi(i32 noundef %12)
  store i32 %13, ptr %2, align 4
  br label %14

14:                                               ; preds = %10, %9
  %15 = load i32, ptr %2, align 4
  ret i32 %15
}

; Function Attrs: mustprogress nounwind uwtable
define linkonce_odr hidden noundef ptr @_ZNK4Node9as_IfProjEv(ptr noundef nonnull align 8 dereferenceable(52) %0) #1 comdat align 2 {
  %2 = alloca ptr, align 8
  store ptr %0, ptr %2, align 8
  %3 = load ptr, ptr %2, align 8
  ret ptr %3
}

; Function Attrs: mustprogress nounwind uwtable
define hidden noundef zeroext i1 @_ZN23RegularPredicateWithUCT19may_be_predicate_ifEP4Node(ptr noundef %0) #1 align 2 {
  %2 = alloca i1, align 1
  %3 = alloca ptr, align 8
  %4 = alloca ptr, align 8
  %5 = alloca i32, align 4
  store ptr %0, ptr %3, align 8
  %6 = load ptr, ptr %3, align 8
  %7 = call noundef zeroext i1 @_ZNK4Node9is_IfProjEv(ptr noundef nonnull align 8 dereferenceable(52) %6)
  br i1 %7, label %8, label %27

8:                                                ; preds = %1
  %9 = load ptr, ptr %3, align 8
  %10 = call noundef ptr @_ZNK4Node2inEj(ptr noundef nonnull align 8 dereferenceable(52) %9, i32 noundef 0)
  %11 = call noundef ptr @_ZNK4Node5as_IfEv(ptr noundef nonnull align 8 dereferenceable(52) %10)
  store ptr %11, ptr %4, align 8
  %12 = load ptr, ptr %4, align 8
  %13 = load ptr, ptr %12, align 8
  %14 = getelementptr inbounds ptr, ptr %13, i64 0
  %15 = load ptr, ptr %14, align 8
  %16 = call noundef i32 %15(ptr noundef nonnull align 8 dereferenceable(60) %12)
  store i32 %16, ptr %5, align 4
  %17 = load i32, ptr %5, align 4
  %18 = icmp eq i32 %17, 177
  br i1 %18, label %19, label %22

19:                                               ; preds = %8
  %20 = load ptr, ptr %4, align 8
  %21 = call noundef zeroext i1 @_ZNK6IfNode18is_zero_trip_guardEv(ptr noundef nonnull align 8 dereferenceable(60) %20)
  br i1 %21, label %22, label %25

22:                                               ; preds = %19, %8
  %23 = load i32, ptr %5, align 4
  %24 = icmp eq i32 %23, 178
  br i1 %24, label %25, label %26

25:                                               ; preds = %22, %19
  store i1 true, ptr %2, align 1
  br label %28

26:                                               ; preds = %22
  br label %27

27:                                               ; preds = %26, %1
  store i1 false, ptr %2, align 1
  br label %28

28:                                               ; preds = %27, %25
  %29 = load i1, ptr %2, align 1
  ret i1 %29
}

; Function Attrs: mustprogress nounwind uwtable
define linkonce_odr hidden noundef zeroext i1 @_ZNK4Node17is_ParsePredicateEv(ptr noundef nonnull align 8 dereferenceable(52) %0) #1 comdat align 2 {
  %2 = alloca ptr, align 8
  store ptr %0, ptr %2, align 8
  %3 = load ptr, ptr %2, align 8
  %4 = getelementptr inbounds %class.Node, ptr %3, i32 0, i32 8
  %5 = load i32, ptr %4, align 4
  %6 = and i32 %5, 511
  %7 = icmp eq i32 %6, 277
  ret i1 %7
}

; Function Attrs: mustprogress nounwind uwtable
define linkonce_odr hidden noundef ptr @_ZNK4Node5as_IfEv(ptr noundef nonnull align 8 dereferenceable(52) %0) #1 comdat align 2 {
  %2 = alloca ptr, align 8
  store ptr %0, ptr %2, align 8
  %3 = load ptr, ptr %2, align 8
  ret ptr %3
}

; Function Attrs: mustprogress nounwind uwtable
define linkonce_odr hidden noundef ptr @_ZNK4Node2inEj(ptr noundef nonnull align 8 dereferenceable(52) %0, i32 noundef %1) #1 comdat align 2 {
  %3 = alloca ptr, align 8
  %4 = alloca i32, align 4
  store ptr %0, ptr %3, align 8
  store i32 %1, ptr %4, align 4
  %5 = load ptr, ptr %3, align 8
  %6 = getelementptr inbounds %class.Node, ptr %5, i32 0, i32 1
  %7 = load ptr, ptr %6, align 8
  %8 = load i32, ptr %4, align 4
  %9 = zext i32 %8 to i64
  %10 = getelementptr inbounds ptr, ptr %7, i64 %9
  %11 = load ptr, ptr %10, align 8
  ret ptr %11
}

; Function Attrs: mustprogress nounwind uwtable
define linkonce_odr hidden noundef zeroext i1 @_ZNK4Node9is_IfProjEv(ptr noundef nonnull align 8 dereferenceable(52) %0) #1 comdat align 2 {
  %2 = alloca ptr, align 8
  store ptr %0, ptr %2, align 8
  %3 = load ptr, ptr %2, align 8
  %4 = getelementptr inbounds %class.Node, ptr %3, i32 0, i32 8
  %5 = load i32, ptr %4, align 4
  %6 = and i32 %5, 127
  %7 = icmp eq i32 %6, 72
  ret i1 %7
}

; Function Attrs: mustprogress nounwind uwtable
define hidden noundef zeroext i1 @_ZN26AssertionPredicateWithHalt12is_predicateEPK4Node(ptr noundef %0) #1 align 2 {
  %2 = alloca i1, align 1
  %3 = alloca ptr, align 8
  store ptr %0, ptr %3, align 8
  %4 = load ptr, ptr %3, align 8
  %5 = icmp eq ptr %4, null
  br i1 %5, label %13, label %6

6:                                                ; preds = %1
  %7 = load ptr, ptr %3, align 8
  %8 = call noundef zeroext i1 @_ZNK4Node9is_IfProjEv(ptr noundef nonnull align 8 dereferenceable(52) %7)
  br i1 %8, label %9, label %13

9:                                                ; preds = %6
  %10 = load ptr, ptr %3, align 8
  %11 = call noundef ptr @_ZNK4Node2inEj(ptr noundef nonnull align 8 dereferenceable(52) %10, i32 noundef 0)
  %12 = call noundef zeroext i1 @_ZNK4Node5is_IfEv(ptr noundef nonnull align 8 dereferenceable(52) %11)
  br i1 %12, label %14, label %13

13:                                               ; preds = %9, %6, %1
  store i1 false, ptr %2, align 1
  br label %22

14:                                               ; preds = %9
  %15 = load ptr, ptr %3, align 8
  %16 = call noundef zeroext i1 @_ZN26AssertionPredicateWithHalt30has_assertion_predicate_opaqueEPK4Node(ptr noundef %15)
  br i1 %16, label %17, label %20

17:                                               ; preds = %14
  %18 = load ptr, ptr %3, align 8
  %19 = call noundef zeroext i1 @_ZN26AssertionPredicateWithHalt8has_haltEPK4Node(ptr noundef %18)
  br label %20

20:                                               ; preds = %17, %14
  %21 = phi i1 [ false, %14 ], [ %19, %17 ]
  store i1 %21, ptr %2, align 1
  br label %22

22:                                               ; preds = %20, %13
  %23 = load i1, ptr %2, align 1
  ret i1 %23
}

; Function Attrs: mustprogress nounwind uwtable
define hidden noundef zeroext i1 @_ZN23RegularPredicateWithUCT12is_predicateEP4Node(ptr noundef %0) #1 align 2 {
  %2 = alloca i1, align 1
  %3 = alloca ptr, align 8
  %4 = alloca ptr, align 8
  %5 = alloca i32, align 4
  store ptr %0, ptr %3, align 8
  %6 = load ptr, ptr %3, align 8
  %7 = call noundef zeroext i1 @_ZN23RegularPredicateWithUCT19may_be_predicate_ifEP4Node(ptr noundef %6)
  br i1 %7, label %8, label %23

8:                                                ; preds = %1
  %9 = load ptr, ptr %3, align 8
  %10 = call noundef ptr @_ZNK4Node9as_IfProjEv(ptr noundef nonnull align 8 dereferenceable(52) %9)
  store ptr %10, ptr %4, align 8
  %11 = load ptr, ptr %4, align 8
  %12 = call noundef i32 @_ZN23RegularPredicateWithUCT20uncommon_trap_reasonEP10IfProjNode(ptr noundef %11)
  store i32 %12, ptr %5, align 4
  %13 = load i32, ptr %5, align 4
  %14 = icmp eq i32 %13, 18
  br i1 %14, label %21, label %15

15:                                               ; preds = %8
  %16 = load i32, ptr %5, align 4
  %17 = icmp eq i32 %16, 17
  br i1 %17, label %21, label %18

18:                                               ; preds = %15
  %19 = load i32, ptr %5, align 4
  %20 = icmp eq i32 %19, 8
  br label %21

21:                                               ; preds = %18, %15, %8
  %22 = phi i1 [ true, %15 ], [ true, %8 ], [ %20, %18 ]
  store i1 %22, ptr %2, align 1
  br label %24

23:                                               ; preds = %1
  store i1 false, ptr %2, align 1
  br label %24

24:                                               ; preds = %23, %21
  %25 = load i1, ptr %2, align 1
  ret i1 %25
}

; Function Attrs: mustprogress nounwind uwtable
define hidden noundef zeroext i1 @_ZN14ParsePredicate12is_predicateEP4Node(ptr noundef %0) #1 align 2 {
  %2 = alloca i1, align 1
  %3 = alloca ptr, align 8
  %4 = alloca ptr, align 8
  store ptr %0, ptr %3, align 8
  %5 = load ptr, ptr %3, align 8
  %6 = call noundef zeroext i1 @_ZNK4Node9is_IfProjEv(ptr noundef nonnull align 8 dereferenceable(52) %5)
  br i1 %6, label %8, label %7

7:                                                ; preds = %1
  store i1 false, ptr %2, align 1
  br label %14

8:                                                ; preds = %1
  %9 = load ptr, ptr %3, align 8
  %10 = call noundef ptr @_ZNK4Node2inEj(ptr noundef nonnull align 8 dereferenceable(52) %9, i32 noundef 0)
  %11 = call noundef ptr @_ZNK4Node5as_IfEv(ptr noundef nonnull align 8 dereferenceable(52) %10)
  store ptr %11, ptr %4, align 8
  %12 = load ptr, ptr %4, align 8
  %13 = call noundef zeroext i1 @_ZNK4Node17is_ParsePredicateEv(ptr noundef nonnull align 8 dereferenceable(52) %12)
  store i1 %13, ptr %2, align 1
  br label %14

14:                                               ; preds = %8, %7
  %15 = load i1, ptr %2, align 1
  ret i1 %15
}

; Function Attrs: mustprogress nounwind uwtable
define hidden noundef zeroext i1 @_ZNK22PredicateEntryIterator8has_nextEv(ptr noundef nonnull align 8 dereferenceable(8) %0) #1 align 2 {
  %2 = alloca ptr, align 8
  store ptr %0, ptr %2, align 8
  %3 = load ptr, ptr %2, align 8
  %4 = getelementptr inbounds %class.PredicateEntryIterator, ptr %3, i32 0, i32 0
  %5 = load ptr, ptr %4, align 8
  %6 = call noundef zeroext i1 @_ZN14ParsePredicate12is_predicateEP4Node(ptr noundef %5)
  br i1 %6, label %15, label %7

7:                                                ; preds = %1
  %8 = getelementptr inbounds %class.PredicateEntryIterator, ptr %3, i32 0, i32 0
  %9 = load ptr, ptr %8, align 8
  %10 = call noundef zeroext i1 @_ZN23RegularPredicateWithUCT12is_predicateEP4Node(ptr noundef %9)
  br i1 %10, label %15, label %11

11:                                               ; preds = %7
  %12 = getelementptr inbounds %class.PredicateEntryIterator, ptr %3, i32 0, i32 0
  %13 = load ptr, ptr %12, align 8
  %14 = call noundef zeroext i1 @_ZN26AssertionPredicateWithHalt12is_predicateEPK4Node(ptr noundef %13)
  br label %15

15:                                               ; preds = %11, %7, %1
  %16 = phi i1 [ true, %7 ], [ true, %1 ], [ %14, %11 ]
  ret i1 %16
}