; Function Attrs: mustprogress nounwind uwtable
define hidden noundef zeroext i1 @_ZNK22PredicateEntryIterator8has_nextEv(ptr nocapture noundef nonnull readonly align 8 dereferenceable(8) %0) local_unnamed_addr #0 align 2 {
  %2 = load ptr, ptr %0, align 8
  %3 = getelementptr inbounds i8, ptr %2, i64 44
  %4 = load i32, ptr %3, align 4
  %5 = and i32 %4, 127
  %6 = icmp eq i32 %5, 72
  br i1 %6, label %_ZN14ParsePredicate12is_predicateEP4Node.exit, label %_ZN23RegularPredicateWithUCT12is_predicateEP4Node.exit.thread.thread

_ZN14ParsePredicate12is_predicateEP4Node.exit:    ; preds = %1
  %7 = getelementptr inbounds i8, ptr %2, i64 8
  %8 = load ptr, ptr %7, align 8
  %9 = load ptr, ptr %8, align 8
  %10 = getelementptr inbounds i8, ptr %9, i64 44
  %11 = load i32, ptr %10, align 4
  %12 = and i32 %11, 511
  %13 = icmp eq i32 %12, 277
  br i1 %13, label %_ZN26AssertionPredicateWithHalt12is_predicateEPK4Node.exit, label %14

14:                                               ; preds = %_ZN14ParsePredicate12is_predicateEP4Node.exit
  %15 = load ptr, ptr %9, align 8
  %16 = load ptr, ptr %15, align 8
  %17 = tail call noundef i32 %16(ptr noundef nonnull align 8 dereferenceable(60) %9) #8
  switch i32 %17, label %_ZN23RegularPredicateWithUCT12is_predicateEP4Node.exit.thread [
    i32 177, label %18
    i32 178, label %20
  ]

18:                                               ; preds = %14
  %19 = tail call noundef zeroext i1 @_ZNK6IfNode18is_zero_trip_guardEv(ptr noundef nonnull align 8 dereferenceable(60) %9) #8
  br i1 %19, label %_ZN23RegularPredicateWithUCT12is_predicateEP4Node.exit.thread, label %20

20:                                               ; preds = %18, %14
  %21 = tail call noundef ptr @_ZNK8ProjNode27is_uncommon_trap_if_patternEN14Deoptimization11DeoptReasonE(ptr noundef nonnull align 8 dereferenceable(57) %2, i32 noundef 0) #8
  %22 = icmp eq ptr %21, null
  br i1 %22, label %_ZN23RegularPredicateWithUCT12is_predicateEP4Node.exit.thread, label %23

23:                                               ; preds = %20
  %24 = tail call noundef i32 @_ZNK18CallStaticJavaNode21uncommon_trap_requestEv(ptr noundef nonnull align 8 dereferenceable(145) %21) #8
  %25 = icmp slt i32 %24, 0
  br i1 %25, label %_ZN23RegularPredicateWithUCT12is_predicateEP4Node.exit, label %_ZN23RegularPredicateWithUCT12is_predicateEP4Node.exit.thread

_ZN23RegularPredicateWithUCT12is_predicateEP4Node.exit: ; preds = %23
  %26 = xor i32 %24, -1
  %27 = lshr i32 %26, 3
  %28 = and i32 %27, 31
  switch i32 %28, label %_ZN23RegularPredicateWithUCT12is_predicateEP4Node.exit.thread [
    i32 18, label %_ZN26AssertionPredicateWithHalt12is_predicateEPK4Node.exit
    i32 17, label %_ZN26AssertionPredicateWithHalt12is_predicateEPK4Node.exit
    i32 8, label %_ZN26AssertionPredicateWithHalt12is_predicateEPK4Node.exit
  ]

_ZN23RegularPredicateWithUCT12is_predicateEP4Node.exit.thread: ; preds = %20, %23, %_ZN23RegularPredicateWithUCT12is_predicateEP4Node.exit, %18, %14
  %.pr = load ptr, ptr %0, align 8
  %29 = icmp eq ptr %.pr, null
  br i1 %29, label %_ZN26AssertionPredicateWithHalt12is_predicateEPK4Node.exit, label %_ZN23RegularPredicateWithUCT12is_predicateEP4Node.exit.thread._ZN23RegularPredicateWithUCT12is_predicateEP4Node.exit.thread.thread_crit_edge

_ZN23RegularPredicateWithUCT12is_predicateEP4Node.exit.thread._ZN23RegularPredicateWithUCT12is_predicateEP4Node.exit.thread.thread_crit_edge: ; preds = %_ZN23RegularPredicateWithUCT12is_predicateEP4Node.exit.thread
  %.phi.trans.insert = getelementptr inbounds i8, ptr %.pr, i64 44
  %.pre = load i32, ptr %.phi.trans.insert, align 4
  br label %_ZN23RegularPredicateWithUCT12is_predicateEP4Node.exit.thread.thread

_ZN23RegularPredicateWithUCT12is_predicateEP4Node.exit.thread.thread: ; preds = %_ZN23RegularPredicateWithUCT12is_predicateEP4Node.exit.thread._ZN23RegularPredicateWithUCT12is_predicateEP4Node.exit.thread.thread_crit_edge, %1
  %30 = phi i32 [ %.pre, %_ZN23RegularPredicateWithUCT12is_predicateEP4Node.exit.thread._ZN23RegularPredicateWithUCT12is_predicateEP4Node.exit.thread.thread_crit_edge ], [ %4, %1 ]
  %31 = phi ptr [ %.pr, %_ZN23RegularPredicateWithUCT12is_predicateEP4Node.exit.thread._ZN23RegularPredicateWithUCT12is_predicateEP4Node.exit.thread.thread_crit_edge ], [ %2, %1 ]
  %32 = and i32 %30, 127
  %33 = icmp eq i32 %32, 72
  br i1 %33, label %34, label %_ZN26AssertionPredicateWithHalt12is_predicateEPK4Node.exit

34:                                               ; preds = %_ZN23RegularPredicateWithUCT12is_predicateEP4Node.exit.thread.thread
  %35 = getelementptr inbounds i8, ptr %31, i64 8
  %36 = load ptr, ptr %35, align 8
  %37 = load ptr, ptr %36, align 8
  %38 = getelementptr inbounds i8, ptr %37, i64 44
  %39 = load i32, ptr %38, align 4
  %40 = and i32 %39, 31
  %41 = icmp eq i32 %40, 21
  br i1 %41, label %42, label %_ZN26AssertionPredicateWithHalt12is_predicateEPK4Node.exit

42:                                               ; preds = %34
  %43 = getelementptr inbounds i8, ptr %37, i64 8
  %44 = load ptr, ptr %43, align 8
  %45 = getelementptr inbounds i8, ptr %44, i64 8
  %46 = load ptr, ptr %45, align 8
  %47 = getelementptr inbounds i8, ptr %46, i64 44
  %48 = load i32, ptr %47, align 4
  %49 = and i32 %48, 262143
  %50 = icmp eq i32 %49, 131072
  %51 = and i32 %48, 524287
  %52 = icmp eq i32 %51, 262144
  %53 = or i1 %50, %52
  br i1 %53, label %54, label %_ZN26AssertionPredicateWithHalt12is_predicateEPK4Node.exit

54:                                               ; preds = %42
  %55 = tail call noundef ptr @_ZNK8ProjNode13other_if_projEv(ptr noundef nonnull align 8 dereferenceable(57) %31) #8
  %56 = getelementptr inbounds i8, ptr %55, i64 32
  %57 = load i32, ptr %56, align 8
  %58 = icmp eq i32 %57, 1
  br i1 %58, label %59, label %_ZN26AssertionPredicateWithHalt12is_predicateEPK4Node.exit

59:                                               ; preds = %54
  %60 = getelementptr inbounds i8, ptr %55, i64 16
  %61 = load ptr, ptr %60, align 8
  %62 = load ptr, ptr %61, align 8
  %63 = load ptr, ptr %62, align 8
  %64 = load ptr, ptr %63, align 8
  %65 = tail call noundef i32 %64(ptr noundef nonnull align 8 dereferenceable(52) %62) #8
  %66 = icmp eq i32 %65, 175
  br label %_ZN26AssertionPredicateWithHalt12is_predicateEPK4Node.exit

_ZN26AssertionPredicateWithHalt12is_predicateEPK4Node.exit: ; preds = %_ZN23RegularPredicateWithUCT12is_predicateEP4Node.exit, %_ZN23RegularPredicateWithUCT12is_predicateEP4Node.exit, %_ZN23RegularPredicateWithUCT12is_predicateEP4Node.exit, %59, %54, %42, %34, %_ZN23RegularPredicateWithUCT12is_predicateEP4Node.exit.thread.thread, %_ZN23RegularPredicateWithUCT12is_predicateEP4Node.exit.thread, %_ZN14ParsePredicate12is_predicateEP4Node.exit
  %67 = phi i1 [ true, %_ZN23RegularPredicateWithUCT12is_predicateEP4Node.exit ], [ true, %_ZN14ParsePredicate12is_predicateEP4Node.exit ], [ false, %34 ], [ false, %_ZN23RegularPredicateWithUCT12is_predicateEP4Node.exit.thread.thread ], [ false, %_ZN23RegularPredicateWithUCT12is_predicateEP4Node.exit.thread ], [ false, %42 ], [ false, %54 ], [ %66, %59 ], [ true, %_ZN23RegularPredicateWithUCT12is_predicateEP4Node.exit ], [ true, %_ZN23RegularPredicateWithUCT12is_predicateEP4Node.exit ]
  ret i1 %67
}